; Function Attrs: null_pointer_is_valid sspstrong uwtable
define internal void @gmr1_rr_msg_ciph_mode_complete(ptr noundef %0, ptr noundef %1, ptr noundef %2, i32 noundef %3, i32 noundef %4) #1 {
  %6 = icmp slt i32 %4, 1
  br i1 %6, label %14, label %7

7:                                                ; preds = %5
  %8 = tail call zeroext i16 @elem_tlv(ptr noundef %0, ptr noundef %1, ptr noundef %2, i8 noundef zeroext 23, i32 noundef 4, i32 noundef 3, i32 noundef %3, i32 noundef %4, ptr noundef null)
  %.not = icmp ne i16 %8, 0
  %9 = zext i16 %8 to i32
  %10 = icmp samesign ule i32 %4, %9
  %.0 = select i1 %.not, i1 %10, i1 false
  br i1 %.0, label %14, label %11

11:                                               ; preds = %7
  %12 = add i32 %3, %9
  %13 = tail call zeroext i16 @elem_tv(ptr noundef %0, ptr noundef %1, ptr noundef %2, i8 noundef zeroext 118, i32 noundef 15, i32 noundef 18, i32 noundef %12, ptr noundef null)
  br label %14

14:                                               ; preds = %7, %5, %11
  ret void
}